target datalayout = "e-m:e-p270:32:32-p271:32:32-p272:64:64-i64:64-i128:128-f80:128-n8:16:32:64-S128"
target triple = "x86_64-pc-linux-gnu"

@.str.4 = private unnamed_addr constant [2 x i8] c"\0A\00", align 1
@.str.5 = private unnamed_addr constant [32 x i8] c"    show [options] [selection]\0A\00", align 1
@.str.6 = private unnamed_addr constant [79 x i8] c"Create a graphviz DOT file for the selected part of the design and compile it\0A\00", align 1
@.str.7 = private unnamed_addr constant [49 x i8] c"to a graphics file (usually SVG or PostScript).\0A\00", align 1
@.str.8 = private unnamed_addr constant [22 x i8] c"    -viewer <viewer>\0A\00", align 1
@.str.9 = private unnamed_addr constant [72 x i8] c"        Run the specified command with the graphics file as parameter.\0A\00", align 1
@.str.10 = private unnamed_addr constant [63 x i8] c"        On Windows, this pauses yosys until the viewer exits.\0A\00", align 1
@.str.11 = private unnamed_addr constant [52 x i8] c"        Use \22-viewer none\22 to not run any command.\0A\00", align 1
@.str.12 = private unnamed_addr constant [22 x i8] c"    -format <format>\0A\00", align 1
@.str.13 = private unnamed_addr constant [77 x i8] c"        Generate a graphics file in the specified format. Use 'dot' to just\0A\00", align 1
@.str.14 = private unnamed_addr constant [79 x i8] c"        generate a .dot file, or other <format> strings such as 'svg' or 'ps'\0A\00", align 1
@.str.15 = private unnamed_addr constant [76 x i8] c"        to generate files in other formats (this calls the 'dot' command).\0A\00", align 1
@.str.16 = private unnamed_addr constant [34 x i8] c"    -lib <verilog_or_rtlil_file>\0A\00", align 1
@.str.17 = private unnamed_addr constant [79 x i8] c"        Use the specified library file for determining whether cell ports are\0A\00", align 1
@.str.18 = private unnamed_addr constant [78 x i8] c"        inputs or outputs. This option can be used multiple times to specify\0A\00", align 1
@.str.19 = private unnamed_addr constant [32 x i8] c"        more than one library.\0A\00", align 1
@.str.20 = private unnamed_addr constant [77 x i8] c"        note: in most cases it is better to load the library before calling\0A\00", align 1
@.str.21 = private unnamed_addr constant [74 x i8] c"        show with 'read_verilog -lib <filename>'. it is also possible to\0A\00", align 1
@.str.22 = private unnamed_addr constant [65 x i8] c"        load liberty files with 'read_liberty -lib <filename>'.\0A\00", align 1
@.str.23 = private unnamed_addr constant [22 x i8] c"    -prefix <prefix>\0A\00", align 1
@.str.24 = private unnamed_addr constant [56 x i8] c"        generate <prefix>.* instead of ~/.yosys_show.*\0A\00", align 1
@.str.25 = private unnamed_addr constant [29 x i8] c"    -color <color> <object>\0A\00", align 1
@.str.26 = private unnamed_addr constant [79 x i8] c"        assign the specified color to the specified object. The object can be\0A\00", align 1
@.str.27 = private unnamed_addr constant [78 x i8] c"        a single selection wildcard expressions or a saved set of objects in\0A\00", align 1
@.str.28 = private unnamed_addr constant [61 x i8] c"        the @<name> syntax (see \22help select\22 for details).\0A\00", align 1
@.str.29 = private unnamed_addr constant [28 x i8] c"    -label <text> <object>\0A\00", align 1
@.str.30 = private unnamed_addr constant [81 x i8] c"        assign the specified label text to the specified object. The object can\0A\00", align 1
@.str.31 = private unnamed_addr constant [81 x i8] c"        be a single selection wildcard expressions or a saved set of objects in\0A\00", align 1
@.str.32 = private unnamed_addr constant [20 x i8] c"    -colors <seed>\0A\00", align 1
@.str.33 = private unnamed_addr constant [79 x i8] c"        Randomly assign colors to the wires. The integer argument is the seed\0A\00", align 1
@.str.34 = private unnamed_addr constant [79 x i8] c"        for the random number generator. Change the seed value if the colored\0A\00", align 1
@.str.35 = private unnamed_addr constant [76 x i8] c"        graph still is ambiguous. A seed of zero deactivates the coloring.\0A\00", align 1
@.str.36 = private unnamed_addr constant [33 x i8] c"    -colorattr <attribute_name>\0A\00", align 1
@.str.37 = private unnamed_addr constant [73 x i8] c"        Use the specified attribute to assign colors. A unique color is\0A\00", align 1
@.str.38 = private unnamed_addr constant [58 x i8] c"        assigned to each unique value of this attribute.\0A\00", align 1
@.str.39 = private unnamed_addr constant [12 x i8] c"    -width\0A\00", align 1
@.str.40 = private unnamed_addr constant [70 x i8] c"        annotate buses with a label indicating the width of the bus.\0A\00", align 1
@.str.41 = private unnamed_addr constant [13 x i8] c"    -signed\0A\00", align 1
@.str.42 = private unnamed_addr constant [78 x i8] c"        mark ports (A, B) that are declared as signed (using the [AB]_SIGNED\0A\00", align 1
@.str.43 = private unnamed_addr constant [65 x i8] c"        cell parameter) with an asterisk next to the port name.\0A\00", align 1
@.str.44 = private unnamed_addr constant [14 x i8] c"    -stretch\0A\00", align 1
@.str.45 = private unnamed_addr constant [78 x i8] c"        stretch the graph so all inputs are on the left side and all outputs\0A\00", align 1
@.str.46 = private unnamed_addr constant [56 x i8] c"        (including inout ports) are on the right side.\0A\00", align 1
@.str.47 = private unnamed_addr constant [12 x i8] c"    -pause\0A\00", align 1
@.str.48 = private unnamed_addr constant [62 x i8] c"        wait for the user to press enter to before returning\0A\00", align 1
@.str.49 = private unnamed_addr constant [11 x i8] c"    -enum\0A\00", align 1
@.str.50 = private unnamed_addr constant [60 x i8] c"        enumerate objects with internal ($-prefixed) names\0A\00", align 1
@.str.51 = private unnamed_addr constant [11 x i8] c"    -long\0A\00", align 1
@.str.52 = private unnamed_addr constant [68 x i8] c"        do not abbreviate objects with internal ($-prefixed) names\0A\00", align 1
@.str.53 = private unnamed_addr constant [14 x i8] c"    -notitle\0A\00", align 1
@.str.54 = private unnamed_addr constant [67 x i8] c"        do not add the module name as graph title to the dot file\0A\00", align 1
@.str.55 = private unnamed_addr constant [11 x i8] c"    -nobg\0A\00", align 1
@.str.56 = private unnamed_addr constant [76 x i8] c"        don't run viewer in the background, IE wait for the viewer tool to\0A\00", align 1
@.str.57 = private unnamed_addr constant [31 x i8] c"        exit before returning\0A\00", align 1
@.str.58 = private unnamed_addr constant [11 x i8] c"    -href\0A\00", align 1
@.str.59 = private unnamed_addr constant [78 x i8] c"        adds href attribute to all items representing cells and wires, using\0A\00", align 1
@.str.60 = private unnamed_addr constant [33 x i8] c"        src attribute of origin\0A\00", align 1
@.str.61 = private unnamed_addr constant [80 x i8] c"When no <format> is specified, 'dot' is used. When no <format> and <viewer> is\0A\00", align 1
@.str.62 = private unnamed_addr constant [74 x i8] c"specified, 'xdot' is used to display the schematic (POSIX systems only).\0A\00", align 1
@.str.63 = private unnamed_addr constant [82 x i8] c"The generated output files are '~/.yosys_show.dot' and '~/.yosys_show.<format>',\0A\00", align 1
@.str.64 = private unnamed_addr constant [60 x i8] c"unless another prefix is specified using -prefix <prefix>.\0A\00", align 1
@.str.65 = private unnamed_addr constant [76 x i8] c"Yosys on Windows and YosysJS use different defaults: The output is written\0A\00", align 1
@.str.66 = private unnamed_addr constant [77 x i8] c"to 'show.dot' in the current directory and new viewer is launched each time\0A\00", align 1
@.str.67 = private unnamed_addr constant [33 x i8] c"the 'show' command is executed.\0A\00", align 1

; Function Attrs: mustprogress uwtable
define internal void @_ZN12_GLOBAL__N_18ShowPass4helpEv(ptr noundef nonnull align 8 dereferenceable(104) %0) unnamed_addr #4 align 2 {
  %2 = alloca ptr, align 8
  store ptr %0, ptr %2, align 8, !tbaa !6
  call void (ptr, ...) @_ZN5Yosys3logEPKcz(ptr noundef @.str.4)
  call void (ptr, ...) @_ZN5Yosys3logEPKcz(ptr noundef @.str.5)
  call void (ptr, ...) @_ZN5Yosys3logEPKcz(ptr noundef @.str.4)
  call void (ptr, ...) @_ZN5Yosys3logEPKcz(ptr noundef @.str.6)
  call void (ptr, ...) @_ZN5Yosys3logEPKcz(ptr noundef @.str.7)
  call void (ptr, ...) @_ZN5Yosys3logEPKcz(ptr noundef @.str.4)
  call void (ptr, ...) @_ZN5Yosys3logEPKcz(ptr noundef @.str.8)
  call void (ptr, ...) @_ZN5Yosys3logEPKcz(ptr noundef @.str.9)
  call void (ptr, ...) @_ZN5Yosys3logEPKcz(ptr noundef @.str.10)
  call void (ptr, ...) @_ZN5Yosys3logEPKcz(ptr noundef @.str.11)
  call void (ptr, ...) @_ZN5Yosys3logEPKcz(ptr noundef @.str.4)
  call void (ptr, ...) @_ZN5Yosys3logEPKcz(ptr noundef @.str.12)
  call void (ptr, ...) @_ZN5Yosys3logEPKcz(ptr noundef @.str.13)
  call void (ptr, ...) @_ZN5Yosys3logEPKcz(ptr noundef @.str.14)
  call void (ptr, ...) @_ZN5Yosys3logEPKcz(ptr noundef @.str.15)
  call void (ptr, ...) @_ZN5Yosys3logEPKcz(ptr noundef @.str.4)
  call void (ptr, ...) @_ZN5Yosys3logEPKcz(ptr noundef @.str.16)
  call void (ptr, ...) @_ZN5Yosys3logEPKcz(ptr noundef @.str.17)
  call void (ptr, ...) @_ZN5Yosys3logEPKcz(ptr noundef @.str.18)
  call void (ptr, ...) @_ZN5Yosys3logEPKcz(ptr noundef @.str.19)
  call void (ptr, ...) @_ZN5Yosys3logEPKcz(ptr noundef @.str.4)
  call void (ptr, ...) @_ZN5Yosys3logEPKcz(ptr noundef @.str.20)
  call void (ptr, ...) @_ZN5Yosys3logEPKcz(ptr noundef @.str.21)
  call void (ptr, ...) @_ZN5Yosys3logEPKcz(ptr noundef @.str.22)
  call void (ptr, ...) @_ZN5Yosys3logEPKcz(ptr noundef @.str.4)
  call void (ptr, ...) @_ZN5Yosys3logEPKcz(ptr noundef @.str.23)
  call void (ptr, ...) @_ZN5Yosys3logEPKcz(ptr noundef @.str.24)
  call void (ptr, ...) @_ZN5Yosys3logEPKcz(ptr noundef @.str.4)
  call void (ptr, ...) @_ZN5Yosys3logEPKcz(ptr noundef @.str.25)
  call void (ptr, ...) @_ZN5Yosys3logEPKcz(ptr noundef @.str.26)
  call void (ptr, ...) @_ZN5Yosys3logEPKcz(ptr noundef @.str.27)
  call void (ptr, ...) @_ZN5Yosys3logEPKcz(ptr noundef @.str.28)
  call void (ptr, ...) @_ZN5Yosys3logEPKcz(ptr noundef @.str.4)
  call void (ptr, ...) @_ZN5Yosys3logEPKcz(ptr noundef @.str.29)
  call void (ptr, ...) @_ZN5Yosys3logEPKcz(ptr noundef @.str.30)
  call void (ptr, ...) @_ZN5Yosys3logEPKcz(ptr noundef @.str.31)
  call void (ptr, ...) @_ZN5Yosys3logEPKcz(ptr noundef @.str.28)
  call void (ptr, ...) @_ZN5Yosys3logEPKcz(ptr noundef @.str.4)
  call void (ptr, ...) @_ZN5Yosys3logEPKcz(ptr noundef @.str.32)
  call void (ptr, ...) @_ZN5Yosys3logEPKcz(ptr noundef @.str.33)
  call void (ptr, ...) @_ZN5Yosys3logEPKcz(ptr noundef @.str.34)
  call void (ptr, ...) @_ZN5Yosys3logEPKcz(ptr noundef @.str.35)
  call void (ptr, ...) @_ZN5Yosys3logEPKcz(ptr noundef @.str.4)
  call void (ptr, ...) @_ZN5Yosys3logEPKcz(ptr noundef @.str.36)
  call void (ptr, ...) @_ZN5Yosys3logEPKcz(ptr noundef @.str.37)
  call void (ptr, ...) @_ZN5Yosys3logEPKcz(ptr noundef @.str.38)
  call void (ptr, ...) @_ZN5Yosys3logEPKcz(ptr noundef @.str.4)
  call void (ptr, ...) @_ZN5Yosys3logEPKcz(ptr noundef @.str.39)
  call void (ptr, ...) @_ZN5Yosys3logEPKcz(ptr noundef @.str.40)
  call void (ptr, ...) @_ZN5Yosys3logEPKcz(ptr noundef @.str.4)
  call void (ptr, ...) @_ZN5Yosys3logEPKcz(ptr noundef @.str.41)
  call void (ptr, ...) @_ZN5Yosys3logEPKcz(ptr noundef @.str.42)
  call void (ptr, ...) @_ZN5Yosys3logEPKcz(ptr noundef @.str.43)
  call void (ptr, ...) @_ZN5Yosys3logEPKcz(ptr noundef @.str.4)
  call void (ptr, ...) @_ZN5Yosys3logEPKcz(ptr noundef @.str.44)
  call void (ptr, ...) @_ZN5Yosys3logEPKcz(ptr noundef @.str.45)
  call void (ptr, ...) @_ZN5Yosys3logEPKcz(ptr noundef @.str.46)
  call void (ptr, ...) @_ZN5Yosys3logEPKcz(ptr noundef @.str.4)
  call void (ptr, ...) @_ZN5Yosys3logEPKcz(ptr noundef @.str.47)
  call void (ptr, ...) @_ZN5Yosys3logEPKcz(ptr noundef @.str.48)
  call void (ptr, ...) @_ZN5Yosys3logEPKcz(ptr noundef @.str.4)
  call void (ptr, ...) @_ZN5Yosys3logEPKcz(ptr noundef @.str.49)
  call void (ptr, ...) @_ZN5Yosys3logEPKcz(ptr noundef @.str.50)
  call void (ptr, ...) @_ZN5Yosys3logEPKcz(ptr noundef @.str.4)
  call void (ptr, ...) @_ZN5Yosys3logEPKcz(ptr noundef @.str.51)
  call void (ptr, ...) @_ZN5Yosys3logEPKcz(ptr noundef @.str.52)
  call void (ptr, ...) @_ZN5Yosys3logEPKcz(ptr noundef @.str.4)
  call void (ptr, ...) @_ZN5Yosys3logEPKcz(ptr noundef @.str.53)
  call void (ptr, ...) @_ZN5Yosys3logEPKcz(ptr noundef @.str.54)
  call void (ptr, ...) @_ZN5Yosys3logEPKcz(ptr noundef @.str.4)
  call void (ptr, ...) @_ZN5Yosys3logEPKcz(ptr noundef @.str.55)
  call void (ptr, ...) @_ZN5Yosys3logEPKcz(ptr noundef @.str.56)
  call void (ptr, ...) @_ZN5Yosys3logEPKcz(ptr noundef @.str.57)
  call void (ptr, ...) @_ZN5Yosys3logEPKcz(ptr noundef @.str.4)
  call void (ptr, ...) @_ZN5Yosys3logEPKcz(ptr noundef @.str.58)
  call void (ptr, ...) @_ZN5Yosys3logEPKcz(ptr noundef @.str.59)
  call void (ptr, ...) @_ZN5Yosys3logEPKcz(ptr noundef @.str.60)
  call void (ptr, ...) @_ZN5Yosys3logEPKcz(ptr noundef @.str.4)
  call void (ptr, ...) @_ZN5Yosys3logEPKcz(ptr noundef @.str.61)
  call void (ptr, ...) @_ZN5Yosys3logEPKcz(ptr noundef @.str.62)
  call void (ptr, ...) @_ZN5Yosys3logEPKcz(ptr noundef @.str.4)
  call void (ptr, ...) @_ZN5Yosys3logEPKcz(ptr noundef @.str.63)
  call void (ptr, ...) @_ZN5Yosys3logEPKcz(ptr noundef @.str.64)
  call void (ptr, ...) @_ZN5Yosys3logEPKcz(ptr noundef @.str.4)
  call void (ptr, ...) @_ZN5Yosys3logEPKcz(ptr noundef @.str.65)
  call void (ptr, ...) @_ZN5Yosys3logEPKcz(ptr noundef @.str.66)
  call void (ptr, ...) @_ZN5Yosys3logEPKcz(ptr noundef @.str.67)
  call void (ptr, ...) @_ZN5Yosys3logEPKcz(ptr noundef @.str.4)
  ret void
}